; Function Attrs: mustprogress uwtable
define hidden void @_ZN7datalog12rule_manager14bind_variablesEP4exprbR7obj_refIS1_11ast_managerE(ptr nocapture noundef nonnull readonly align 8 dereferenceable(1368) %this, ptr noundef %fml, i1 noundef zeroext %is_forall, ptr nocapture noundef nonnull align 8 dereferenceable(16) %result) local_unnamed_addr #3 align 2 personality ptr @__gxx_personality_v0 {
entry:
  %ref.tmp = alloca %class.obj_ref.22, align 8
  %m_ctx = getelementptr inbounds i8, ptr %this, i64 8
  %0 = load ptr, ptr %m_ctx, align 8
  call void @_ZN7datalog7context9bind_varsEP4exprb(ptr nonnull sret(%class.obj_ref.22) align 8 %ref.tmp, ptr noundef nonnull align 8 dereferenceable(3556) %0, ptr noundef %fml, i1 noundef zeroext %is_forall)
  %1 = load ptr, ptr %result, align 8
  %2 = load ptr, ptr %ref.tmp, align 8
  store ptr %2, ptr %result, align 8
  store ptr %1, ptr %ref.tmp, align 8
  %tobool.not.i.i.i = icmp eq ptr %1, null
  br i1 %tobool.not.i.i.i, label %_ZN7obj_refI4expr11ast_managerED2Ev.exit, label %if.then.i.i.i.i

if.then.i.i.i.i:                                  ; preds = %entry
  %m_manager.i.i.i = getelementptr inbounds i8, ptr %ref.tmp, i64 8
  %3 = load ptr, ptr %m_manager.i.i.i, align 8
  %m_ref_count.i.i.i.i.i = getelementptr inbounds i8, ptr %1, i64 8
  %4 = load i32, ptr %m_ref_count.i.i.i.i.i, align 4
  %dec.i.i.i.i.i = add i32 %4, -1
  store i32 %dec.i.i.i.i.i, ptr %m_ref_count.i.i.i.i.i, align 4
  %cmp.i.i.i.i = icmp eq i32 %dec.i.i.i.i.i, 0
  br i1 %cmp.i.i.i.i, label %if.then2.i.i.i.i, label %_ZN7obj_refI4expr11ast_managerED2Ev.exit

if.then2.i.i.i.i:                                 ; preds = %if.then.i.i.i.i
  invoke void @_ZN11ast_manager11delete_nodeEP3ast(ptr noundef nonnull align 8 dereferenceable(976) %3, ptr noundef nonnull %1)
          to label %_ZN7obj_refI4expr11ast_managerED2Ev.exit unwind label %terminate.lpad.i

terminate.lpad.i:                                 ; preds = %if.then2.i.i.i.i
  %5 = landingpad { ptr, i32 }
          catch ptr null
  %6 = extractvalue { ptr, i32 } %5, 0
  call void @__clang_call_terminate(ptr %6) #21
  unreachable

_ZN7obj_refI4expr11ast_managerED2Ev.exit:         ; preds = %if.then2.i.i.i.i, %if.then.i.i.i.i, %entry
  ret void
}